target datalayout = "e-m:e-p270:32:32-p271:32:32-p272:64:64-i64:64-i128:128-f80:128-n8:16:32:64-S128"
target triple = "x86_64-pc-linux-gnu"

%struct.Aig_Man_t_ = type { ptr, ptr, ptr, ptr, ptr, ptr, ptr, %struct.Aig_Obj_t_, i32, i32, i32, i32, i32, i32, [7 x i32], i32, ptr, i32, ptr, i32, ptr, i32, i32, i32, ptr, i32, i32, i32, i32, i32, ptr, ptr, i32, ptr, ptr, i32, ptr, ptr, i32, i32, i32, ptr, ptr, ptr, ptr, ptr, ptr, ptr, ptr, ptr, ptr, ptr, ptr, ptr, ptr, i32, ptr, ptr, ptr, ptr, i32, i64, i64, i64, ptr, ptr }
%struct.Aig_Obj_t_ = type { %union.anon, ptr, ptr, i64, i32, i32, %union.anon.0 }
%union.anon = type { ptr }
%union.anon.0 = type { ptr }
%struct.Vec_Ptr_t_ = type { i32, i32, ptr }

; Function Attrs: inlinehint nounwind uwtable
define internal void @Vec_PtrShrink(ptr noundef %0, i32 noundef %1) #4 {
  %3 = alloca ptr, align 8
  %4 = alloca i32, align 4
  store ptr %0, ptr %3, align 8, !tbaa !34
  store i32 %1, ptr %4, align 4, !tbaa !3
  %5 = load i32, ptr %4, align 4, !tbaa !3
  %6 = load ptr, ptr %3, align 8, !tbaa !34
  %7 = getelementptr inbounds nuw %struct.Vec_Ptr_t_, ptr %6, i32 0, i32 1
  store i32 %5, ptr %7, align 4, !tbaa !35
  ret void
}

; Function Attrs: inlinehint nounwind uwtable
define internal i32 @Aig_ObjRefs(ptr noundef %0) #4 {
  %2 = alloca ptr, align 8
  store ptr %0, ptr %2, align 8, !tbaa !39
  %3 = load ptr, ptr %2, align 8, !tbaa !39
  %4 = getelementptr inbounds nuw %struct.Aig_Obj_t_, ptr %3, i32 0, i32 3
  %5 = load i64, ptr %4, align 8
  %6 = lshr i64 %5, 6
  %7 = and i64 %6, 67108863
  %8 = trunc i64 %7 to i32
  ret i32 %8
}

; Function Attrs: inlinehint nounwind uwtable
define internal void @Vec_PtrWriteEntry(ptr noundef %0, i32 noundef %1, ptr noundef %2) #4 {
  %4 = alloca ptr, align 8
  %5 = alloca i32, align 4
  %6 = alloca ptr, align 8
  store ptr %0, ptr %4, align 8, !tbaa !34
  store i32 %1, ptr %5, align 4, !tbaa !3
  store ptr %2, ptr %6, align 8, !tbaa !49
  %7 = load ptr, ptr %6, align 8, !tbaa !49
  %8 = load ptr, ptr %4, align 8, !tbaa !34
  %9 = getelementptr inbounds nuw %struct.Vec_Ptr_t_, ptr %8, i32 0, i32 2
  %10 = load ptr, ptr %9, align 8, !tbaa !38
  %11 = load i32, ptr %5, align 4, !tbaa !3
  %12 = sext i32 %11 to i64
  %13 = getelementptr inbounds ptr, ptr %10, i64 %12
  store ptr %7, ptr %13, align 8, !tbaa !49
  ret void
}

; Function Attrs: inlinehint nounwind uwtable
define internal i32 @Aig_ManRegNum(ptr noundef %0) #4 {
  %2 = alloca ptr, align 8
  store ptr %0, ptr %2, align 8, !tbaa !7
  %3 = load ptr, ptr %2, align 8, !tbaa !7
  %4 = getelementptr inbounds nuw %struct.Aig_Man_t_, ptr %3, i32 0, i32 8
  %5 = load i32, ptr %4, align 8, !tbaa !85
  ret i32 %5
}

; Function Attrs: inlinehint nounwind uwtable
define internal ptr @Vec_PtrEntry(ptr noundef %0, i32 noundef %1) #4 {
  %3 = alloca ptr, align 8
  %4 = alloca i32, align 4
  store ptr %0, ptr %3, align 8, !tbaa !34
  store i32 %1, ptr %4, align 4, !tbaa !3
  %5 = load ptr, ptr %3, align 8, !tbaa !34
  %6 = getelementptr inbounds nuw %struct.Vec_Ptr_t_, ptr %5, i32 0, i32 2
  %7 = load ptr, ptr %6, align 8, !tbaa !38
  %8 = load i32, ptr %4, align 4, !tbaa !3
  %9 = sext i32 %8 to i64
  %10 = getelementptr inbounds ptr, ptr %7, i64 %9
  %11 = load ptr, ptr %10, align 8, !tbaa !49
  ret ptr %11
}

; Function Attrs: inlinehint nounwind uwtable
define internal i32 @Vec_PtrSize(ptr noundef %0) #4 {
  %2 = alloca ptr, align 8
  store ptr %0, ptr %2, align 8, !tbaa !34
  %3 = load ptr, ptr %2, align 8, !tbaa !34
  %4 = getelementptr inbounds nuw %struct.Vec_Ptr_t_, ptr %3, i32 0, i32 1
  %5 = load i32, ptr %4, align 4, !tbaa !35
  ret i32 %5
}

; Function Attrs: inlinehint nounwind uwtable
define internal i32 @Aig_ManCiNum(ptr noundef %0) #4 {
  %2 = alloca ptr, align 8
  store ptr %0, ptr %2, align 8, !tbaa !7
  %3 = load ptr, ptr %2, align 8, !tbaa !7
  %4 = getelementptr inbounds nuw %struct.Aig_Man_t_, ptr %3, i32 0, i32 14
  %5 = getelementptr inbounds [7 x i32], ptr %4, i64 0, i64 2
  %6 = load i32, ptr %5, align 8, !tbaa !3
  ret i32 %6
}

; Function Attrs: nounwind uwtable
define i32 @Aig_ManCiCleanup(ptr noundef %0) #0 {
  %2 = alloca ptr, align 8
  %3 = alloca ptr, align 8
  %4 = alloca i32, align 4
  %5 = alloca i32, align 4
  %6 = alloca i32, align 4
  store ptr %0, ptr %2, align 8, !tbaa !7
  call void @llvm.lifetime.start.p0(i64 8, ptr %3) #10
  call void @llvm.lifetime.start.p0(i64 4, ptr %4) #10
  call void @llvm.lifetime.start.p0(i64 4, ptr %5) #10
  store i32 0, ptr %5, align 4, !tbaa !3
  call void @llvm.lifetime.start.p0(i64 4, ptr %6) #10
  %7 = load ptr, ptr %2, align 8, !tbaa !7
  %8 = call i32 @Aig_ManCiNum(ptr noundef %7)
  store i32 %8, ptr %6, align 4, !tbaa !3
  store i32 0, ptr %4, align 4, !tbaa !3
  br label %9

9:                                                ; preds = %59, %1
  %10 = load i32, ptr %4, align 4, !tbaa !3
  %11 = load ptr, ptr %2, align 8, !tbaa !7
  %12 = getelementptr inbounds nuw %struct.Aig_Man_t_, ptr %11, i32 0, i32 2
  %13 = load ptr, ptr %12, align 8, !tbaa !24
  %14 = call i32 @Vec_PtrSize(ptr noundef %13)
  %15 = icmp slt i32 %10, %14
  br i1 %15, label %16, label %22

16:                                               ; preds = %9
  %17 = load ptr, ptr %2, align 8, !tbaa !7
  %18 = getelementptr inbounds nuw %struct.Aig_Man_t_, ptr %17, i32 0, i32 2
  %19 = load ptr, ptr %18, align 8, !tbaa !24
  %20 = load i32, ptr %4, align 4, !tbaa !3
  %21 = call ptr @Vec_PtrEntry(ptr noundef %19, i32 noundef %20)
  store ptr %21, ptr %3, align 8, !tbaa !39
  br label %22

22:                                               ; preds = %16, %9
  %23 = phi i1 [ false, %9 ], [ true, %16 ]
  br i1 %23, label %24, label %62

24:                                               ; preds = %22
  %25 = load i32, ptr %4, align 4, !tbaa !3
  %26 = load ptr, ptr %2, align 8, !tbaa !7
  %27 = call i32 @Aig_ManCiNum(ptr noundef %26)
  %28 = load ptr, ptr %2, align 8, !tbaa !7
  %29 = call i32 @Aig_ManRegNum(ptr noundef %28)
  %30 = sub nsw i32 %27, %29
  %31 = icmp sge i32 %25, %30
  br i1 %31, label %32, label %39

32:                                               ; preds = %24
  %33 = load ptr, ptr %2, align 8, !tbaa !7
  %34 = getelementptr inbounds nuw %struct.Aig_Man_t_, ptr %33, i32 0, i32 2
  %35 = load ptr, ptr %34, align 8, !tbaa !24
  %36 = load i32, ptr %5, align 4, !tbaa !3
  %37 = add nsw i32 %36, 1
  store i32 %37, ptr %5, align 4, !tbaa !3
  %38 = load ptr, ptr %3, align 8, !tbaa !39
  call void @Vec_PtrWriteEntry(ptr noundef %35, i32 noundef %36, ptr noundef %38)
  br label %58

39:                                               ; preds = %24
  %40 = load ptr, ptr %3, align 8, !tbaa !39
  %41 = call i32 @Aig_ObjRefs(ptr noundef %40)
  %42 = icmp sgt i32 %41, 0
  br i1 %42, label %43, label %50

43:                                               ; preds = %39
  %44 = load ptr, ptr %2, align 8, !tbaa !7
  %45 = getelementptr inbounds nuw %struct.Aig_Man_t_, ptr %44, i32 0, i32 2
  %46 = load ptr, ptr %45, align 8, !tbaa !24
  %47 = load i32, ptr %5, align 4, !tbaa !3
  %48 = add nsw i32 %47, 1
  store i32 %48, ptr %5, align 4, !tbaa !3
  %49 = load ptr, ptr %3, align 8, !tbaa !39
  call void @Vec_PtrWriteEntry(ptr noundef %46, i32 noundef %47, ptr noundef %49)
  br label %57

50:                                               ; preds = %39
  %51 = load ptr, ptr %2, align 8, !tbaa !7
  %52 = getelementptr inbounds nuw %struct.Aig_Man_t_, ptr %51, i32 0, i32 4
  %53 = load ptr, ptr %52, align 8, !tbaa !26
  %54 = load ptr, ptr %3, align 8, !tbaa !39
  %55 = getelementptr inbounds nuw %struct.Aig_Obj_t_, ptr %54, i32 0, i32 5
  %56 = load i32, ptr %55, align 4, !tbaa !40
  call void @Vec_PtrWriteEntry(ptr noundef %53, i32 noundef %56, ptr noundef null)
  br label %57

57:                                               ; preds = %50, %43
  br label %58

58:                                               ; preds = %57, %32
  br label %59

59:                                               ; preds = %58
  %60 = load i32, ptr %4, align 4, !tbaa !3
  %61 = add nsw i32 %60, 1
  store i32 %61, ptr %4, align 4, !tbaa !3
  br label %9, !llvm.loop !83

62:                                               ; preds = %22
  %63 = load ptr, ptr %2, align 8, !tbaa !7
  %64 = getelementptr inbounds nuw %struct.Aig_Man_t_, ptr %63, i32 0, i32 2
  %65 = load ptr, ptr %64, align 8, !tbaa !24
  %66 = load i32, ptr %5, align 4, !tbaa !3
  call void @Vec_PtrShrink(ptr noundef %65, i32 noundef %66)
  %67 = load ptr, ptr %2, align 8, !tbaa !7
  %68 = getelementptr inbounds nuw %struct.Aig_Man_t_, ptr %67, i32 0, i32 2
  %69 = load ptr, ptr %68, align 8, !tbaa !24
  %70 = call i32 @Vec_PtrSize(ptr noundef %69)
  %71 = load ptr, ptr %2, align 8, !tbaa !7
  %72 = getelementptr inbounds nuw %struct.Aig_Man_t_, ptr %71, i32 0, i32 14
  %73 = getelementptr inbounds [7 x i32], ptr %72, i64 0, i64 2
  store i32 %70, ptr %73, align 8, !tbaa !3
  %74 = load ptr, ptr %2, align 8, !tbaa !7
  %75 = call i32 @Aig_ManRegNum(ptr noundef %74)
  %76 = icmp ne i32 %75, 0
  br i1 %76, label %77, label %85

77:                                               ; preds = %62
  %78 = load ptr, ptr %2, align 8, !tbaa !7
  %79 = call i32 @Aig_ManCiNum(ptr noundef %78)
  %80 = load ptr, ptr %2, align 8, !tbaa !7
  %81 = call i32 @Aig_ManRegNum(ptr noundef %80)
  %82 = sub nsw i32 %79, %81
  %83 = load ptr, ptr %2, align 8, !tbaa !7
  %84 = getelementptr inbounds nuw %struct.Aig_Man_t_, ptr %83, i32 0, i32 9
  store i32 %82, ptr %84, align 4, !tbaa !84
  br label %85

85:                                               ; preds = %77, %62
  %86 = load i32, ptr %6, align 4, !tbaa !3
  %87 = load ptr, ptr %2, align 8, !tbaa !7
  %88 = call i32 @Aig_ManCiNum(ptr noundef %87)
  %89 = sub nsw i32 %86, %88
  call void @llvm.lifetime.end.p0(i64 4, ptr %6) #10
  call void @llvm.lifetime.end.p0(i64 4, ptr %5) #10
  call void @llvm.lifetime.end.p0(i64 4, ptr %4) #10
  call void @llvm.lifetime.end.p0(i64 8, ptr %3) #10
  ret i32 %89
}