; Function Attrs: nofree norecurse nosync nounwind memory(readwrite, inaccessiblemem: none) uwtable
define i32 @Aig_ManCiCleanup(ptr noundef captures(none) %0) local_unnamed_addr #8 {
  %2 = getelementptr i8, ptr %0, i64 136
  %.val33 = load i32, ptr %2, align 8, !tbaa !35
  %3 = getelementptr inbounds nuw i8, ptr %0, i64 16
  %4 = load ptr, ptr %3, align 8, !tbaa !25
  %5 = getelementptr i8, ptr %4, i64 4
  %.val3044 = load i32, ptr %5, align 4, !tbaa !21
  %6 = icmp sgt i32 %.val3044, 0
  %7 = getelementptr i8, ptr %0, i64 104
  %.val37 = load i32, ptr %7, align 8, !tbaa !79
  br i1 %6, label %.lr.ph, label %.critedge

.lr.ph:                                           ; preds = %1
  %8 = sub nsw i32 %.val33, %.val37
  %9 = getelementptr inbounds nuw i8, ptr %0, i64 32
  %10 = sext i32 %8 to i64
  br label %11

11:                                               ; preds = %.lr.ph, %28
  %indvars.iv = phi i64 [ 0, %.lr.ph ], [ %indvars.iv.next, %28 ]
  %12 = phi ptr [ %4, %.lr.ph ], [ %31, %28 ]
  %.02745 = phi i32 [ 0, %.lr.ph ], [ %.1, %28 ]
  %13 = getelementptr i8, ptr %12, i64 8
  %.val31 = load ptr, ptr %13, align 8, !tbaa !24
  %14 = getelementptr inbounds nuw ptr, ptr %.val31, i64 %indvars.iv
  %15 = load ptr, ptr %14, align 8, !tbaa !33
  %.not28 = icmp slt i64 %indvars.iv, %10
  br i1 %.not28, label %18, label %16

16:                                               ; preds = %11
  %17 = add nsw i32 %.02745, 1
  br label %28

18:                                               ; preds = %11
  %19 = getelementptr i8, ptr %15, i64 24
  %.val32 = load i64, ptr %19, align 8
  %20 = and i64 %.val32, 4294967232
  %.not29 = icmp eq i64 %20, 0
  br i1 %.not29, label %23, label %21

21:                                               ; preds = %18
  %22 = add nsw i32 %.02745, 1
  br label %28

23:                                               ; preds = %18
  %24 = load ptr, ptr %9, align 8, !tbaa !27
  %25 = getelementptr inbounds nuw i8, ptr %15, i64 36
  %26 = load i32, ptr %25, align 4, !tbaa !32
  %27 = getelementptr i8, ptr %24, i64 8
  %.val42 = load ptr, ptr %27, align 8, !tbaa !24
  br label %28

28:                                               ; preds = %16, %23, %21
  %.02745.sink = phi i32 [ %.02745, %16 ], [ %26, %23 ], [ %.02745, %21 ]
  %.val31.sink = phi ptr [ %.val31, %16 ], [ %.val42, %23 ], [ %.val31, %21 ]
  %.sink = phi ptr [ %15, %16 ], [ null, %23 ], [ %15, %21 ]
  %.1 = phi i32 [ %17, %16 ], [ %.02745, %23 ], [ %22, %21 ]
  %29 = sext i32 %.02745.sink to i64
  %30 = getelementptr inbounds ptr, ptr %.val31.sink, i64 %29
  store ptr %.sink, ptr %30, align 8, !tbaa !33
  %indvars.iv.next = add nuw nsw i64 %indvars.iv, 1
  %31 = load ptr, ptr %3, align 8, !tbaa !25
  %32 = getelementptr i8, ptr %31, i64 4
  %.val30 = load i32, ptr %32, align 4, !tbaa !21
  %33 = sext i32 %.val30 to i64
  %34 = icmp slt i64 %indvars.iv.next, %33
  br i1 %34, label %11, label %.critedge, !llvm.loop !80

.critedge:                                        ; preds = %28, %1
  %.lcssa43 = phi ptr [ %4, %1 ], [ %31, %28 ]
  %.027.lcssa = phi i32 [ 0, %1 ], [ %.1, %28 ]
  %35 = getelementptr i8, ptr %.lcssa43, i64 4
  store i32 %.027.lcssa, ptr %35, align 4, !tbaa !21
  store i32 %.027.lcssa, ptr %2, align 8, !tbaa !35
  %.not = icmp eq i32 %.val37, 0
  br i1 %.not, label %39, label %36

36:                                               ; preds = %.critedge
  %37 = sub nsw i32 %.027.lcssa, %.val37
  %38 = getelementptr inbounds nuw i8, ptr %0, i64 108
  store i32 %37, ptr %38, align 4, !tbaa !81
  br label %39

39:                                               ; preds = %36, %.critedge
  %40 = sub nsw i32 %.val33, %.027.lcssa
  ret i32 %40
}